; Function Attrs: mustprogress nofree nounwind willreturn uwtable
define noalias noundef ptr @Msat_IntVecDup(ptr noundef readonly captures(none) %0) local_unnamed_addr #2 {
  %2 = tail call noalias dereferenceable_or_null(16) ptr @malloc(i64 noundef 16) #19
  %3 = getelementptr inbounds nuw i8, ptr %0, i64 8
  %4 = load i32, ptr %3, align 8, !tbaa !3
  %5 = getelementptr inbounds nuw i8, ptr %2, i64 8
  store i32 %4, ptr %5, align 8, !tbaa !3
  %6 = getelementptr inbounds nuw i8, ptr %0, i64 12
  %7 = load i32, ptr %6, align 4, !tbaa !10
  %8 = getelementptr inbounds nuw i8, ptr %2, i64 12
  store i32 %7, ptr %8, align 4, !tbaa !10
  %.not = icmp eq i32 %7, 0
  br i1 %.not, label %13, label %9

9:                                                ; preds = %1
  %10 = sext i32 %7 to i64
  %11 = shl nsw i64 %10, 2
  %12 = tail call noalias ptr @malloc(i64 noundef %11) #19
  br label %13

13:                                               ; preds = %1, %9
  %14 = phi ptr [ %12, %9 ], [ null, %1 ]
  store ptr %14, ptr %2, align 8, !tbaa !11
  %15 = load ptr, ptr %0, align 8, !tbaa !11
  %16 = sext i32 %4 to i64
  %17 = shl nsw i64 %16, 2
  tail call void @llvm.memcpy.p0.p0.i64(ptr align 4 %14, ptr align 4 %15, i64 %17, i1 false)
  ret ptr %2
}